target datalayout = "e-m:e-p270:32:32-p271:32:32-p272:64:64-i64:64-i128:128-f80:128-n8:16:32:64-S128"
target triple = "x86_64-pc-linux-gnu"

@hwloc_linux_set_area_membind.preferred_many_notsupported = internal global i32 -1, align 4

; Function Attrs: inlinehint nounwind uwtable
define internal i64 @hwloc_mbind(ptr noundef %0, i64 noundef %1, i32 noundef %2, ptr noundef %3, i64 noundef %4, i32 noundef %5) #1 {
  %7 = alloca ptr, align 8
  %8 = alloca i64, align 8
  %9 = alloca i32, align 4
  %10 = alloca ptr, align 8
  %11 = alloca i64, align 8
  %12 = alloca i32, align 4
  store ptr %0, ptr %7, align 8, !tbaa !21
  store i64 %1, ptr %8, align 8, !tbaa !12
  store i32 %2, ptr %9, align 4, !tbaa !10
  store ptr %3, ptr %10, align 8, !tbaa !14
  store i64 %4, ptr %11, align 8, !tbaa !12
  store i32 %5, ptr %12, align 4, !tbaa !10
  %13 = load ptr, ptr %7, align 8, !tbaa !21
  %14 = ptrtoint ptr %13 to i64
  %15 = load i64, ptr %8, align 8, !tbaa !12
  %16 = load i32, ptr %9, align 4, !tbaa !10
  %17 = load ptr, ptr %10, align 8, !tbaa !14
  %18 = ptrtoint ptr %17 to i64
  %19 = load i64, ptr %11, align 8, !tbaa !12
  %20 = load i32, ptr %12, align 4, !tbaa !10
  %21 = call i64 (i64, ...) @syscall(i64 noundef 237, i64 noundef %14, i64 noundef %15, i32 noundef %16, i64 noundef %18, i64 noundef %19, i32 noundef %20) #14
  ret i64 %21
}

; Function Attrs: nounwind uwtable
define internal i32 @hwloc_linux_membind_policy_from_hwloc(ptr noundef %0, i32 noundef %1, i32 noundef %2) #0 {
  %4 = alloca i32, align 4
  %5 = alloca ptr, align 8
  %6 = alloca i32, align 4
  %7 = alloca i32, align 4
  store ptr %0, ptr %5, align 8, !tbaa !91
  store i32 %1, ptr %6, align 4, !tbaa !10
  store i32 %2, ptr %7, align 4, !tbaa !10
  %8 = load i32, ptr %6, align 4, !tbaa !10
  switch i32 %8, label %26 [
    i32 0, label %9
    i32 1, label %11
    i32 2, label %13
    i32 3, label %22
    i32 5, label %24
  ]

9:                                                ; preds = %3
  %10 = load ptr, ptr %5, align 8, !tbaa !91
  store i32 0, ptr %10, align 4, !tbaa !10
  br label %28

11:                                               ; preds = %3
  %12 = load ptr, ptr %5, align 8, !tbaa !91
  store i32 4, ptr %12, align 4, !tbaa !10
  br label %28

13:                                               ; preds = %3
  %14 = load i32, ptr %7, align 4, !tbaa !10
  %15 = and i32 %14, 4
  %16 = icmp ne i32 %15, 0
  br i1 %16, label %17, label %19

17:                                               ; preds = %13
  %18 = load ptr, ptr %5, align 8, !tbaa !91
  store i32 2, ptr %18, align 4, !tbaa !10
  br label %21

19:                                               ; preds = %13
  %20 = load ptr, ptr %5, align 8, !tbaa !91
  store i32 5, ptr %20, align 4, !tbaa !10
  br label %21

21:                                               ; preds = %19, %17
  br label %28

22:                                               ; preds = %3
  %23 = load ptr, ptr %5, align 8, !tbaa !91
  store i32 3, ptr %23, align 4, !tbaa !10
  br label %28

24:                                               ; preds = %3
  %25 = load ptr, ptr %5, align 8, !tbaa !91
  store i32 6, ptr %25, align 4, !tbaa !10
  br label %28

26:                                               ; preds = %3
  %27 = call ptr @__errno_location() #18
  store i32 38, ptr %27, align 4, !tbaa !10
  store i32 -1, ptr %4, align 4
  br label %29

28:                                               ; preds = %24, %22, %21, %11, %9
  store i32 0, ptr %4, align 4
  br label %29

29:                                               ; preds = %28, %26
  %30 = load i32, ptr %4, align 4
  ret i32 %30
}

; Function Attrs: nounwind uwtable
define internal i32 @hwloc_linux_set_area_membind(ptr noundef %0, ptr noundef %1, i64 noundef %2, ptr noundef %3, i32 noundef %4, i32 noundef %5) #0 {
  %7 = alloca i32, align 4
  %8 = alloca ptr, align 8
  %9 = alloca ptr, align 8
  %10 = alloca i64, align 8
  %11 = alloca ptr, align 8
  %12 = alloca i32, align 4
  %13 = alloca i32, align 4
  %14 = alloca i32, align 4
  %15 = alloca ptr, align 8
  %16 = alloca i64, align 8
  %17 = alloca i32, align 4
  %18 = alloca i32, align 4
  %19 = alloca i32, align 4
  %20 = alloca i32, align 4
  store ptr %0, ptr %8, align 8, !tbaa !19
  store ptr %1, ptr %9, align 8, !tbaa !21
  store i64 %2, ptr %10, align 8, !tbaa !12
  store ptr %3, ptr %11, align 8, !tbaa !8
  store i32 %4, ptr %12, align 4, !tbaa !10
  store i32 %5, ptr %13, align 4, !tbaa !10
  call void @llvm.lifetime.start.p0(i64 4, ptr %14) #14
  call void @llvm.lifetime.start.p0(i64 8, ptr %15) #14
  call void @llvm.lifetime.start.p0(i64 8, ptr %16) #14
  call void @llvm.lifetime.start.p0(i64 4, ptr %17) #14
  call void @llvm.lifetime.start.p0(i64 4, ptr %18) #14
  store i32 0, ptr %18, align 4, !tbaa !10
  call void @llvm.lifetime.start.p0(i64 4, ptr %19) #14
  %21 = load ptr, ptr %9, align 8, !tbaa !21
  %22 = ptrtoint ptr %21 to i64
  %23 = call i64 @sysconf(i32 noundef 30) #14
  %24 = sub nsw i64 %23, 1
  %25 = and i64 %22, %24
  store i64 %25, ptr %16, align 8, !tbaa !12
  %26 = load ptr, ptr %9, align 8, !tbaa !21
  %27 = load i64, ptr %16, align 8, !tbaa !12
  %28 = sub i64 0, %27
  %29 = getelementptr inbounds i8, ptr %26, i64 %28
  store ptr %29, ptr %9, align 8, !tbaa !21
  %30 = load i64, ptr %16, align 8, !tbaa !12
  %31 = load i64, ptr %10, align 8, !tbaa !12
  %32 = add i64 %31, %30
  store i64 %32, ptr %10, align 8, !tbaa !12
  %33 = load i32, ptr %12, align 4, !tbaa !10
  %34 = load i32, ptr %13, align 4, !tbaa !10
  %35 = call i32 @hwloc_linux_membind_policy_from_hwloc(ptr noundef %17, i32 noundef %33, i32 noundef %34)
  store i32 %35, ptr %19, align 4, !tbaa !10
  %36 = load i32, ptr %19, align 4, !tbaa !10
  %37 = icmp slt i32 %36, 0
  br i1 %37, label %38, label %40

38:                                               ; preds = %6
  %39 = load i32, ptr %19, align 4, !tbaa !10
  store i32 %39, ptr %7, align 4
  store i32 1, ptr %20, align 4
  br label %142

40:                                               ; preds = %6
  %41 = load i32, ptr @hwloc_linux_set_area_membind.preferred_many_notsupported, align 4, !tbaa !10
  %42 = icmp eq i32 %41, 1
  br i1 %42, label %43, label %47

43:                                               ; preds = %40
  %44 = load i32, ptr %17, align 4, !tbaa !10
  %45 = icmp eq i32 %44, 5
  br i1 %45, label %46, label %47

46:                                               ; preds = %43
  store i32 1, ptr %17, align 4, !tbaa !10
  br label %47

47:                                               ; preds = %46, %43, %40
  %48 = load i32, ptr %17, align 4, !tbaa !10
  %49 = icmp eq i32 %48, 0
  br i1 %49, label %50, label %56

50:                                               ; preds = %47
  %51 = load ptr, ptr %9, align 8, !tbaa !21
  %52 = load i64, ptr %10, align 8, !tbaa !12
  %53 = load i32, ptr %17, align 4, !tbaa !10
  %54 = call i64 @hwloc_mbind(ptr noundef %51, i64 noundef %52, i32 noundef %53, ptr noundef null, i64 noundef 0, i32 noundef 0)
  %55 = trunc i64 %54 to i32
  store i32 %55, ptr %7, align 4
  store i32 1, ptr %20, align 4
  br label %142

56:                                               ; preds = %47
  %57 = load i32, ptr %17, align 4, !tbaa !10
  %58 = icmp eq i32 %57, 4
  br i1 %58, label %59, label %72

59:                                               ; preds = %56
  %60 = load ptr, ptr %11, align 8, !tbaa !8
  %61 = load ptr, ptr %8, align 8, !tbaa !19
  %62 = call ptr @hwloc_topology_get_complete_nodeset(ptr noundef %61) #17
  %63 = call i32 @hwloc_bitmap_isequal(ptr noundef %60, ptr noundef %62) #17
  %64 = icmp ne i32 %63, 0
  br i1 %64, label %67, label %65

65:                                               ; preds = %59
  %66 = call ptr @__errno_location() #18
  store i32 18, ptr %66, align 4, !tbaa !10
  store i32 -1, ptr %7, align 4
  store i32 1, ptr %20, align 4
  br label %142

67:                                               ; preds = %59
  %68 = load ptr, ptr %9, align 8, !tbaa !21
  %69 = load i64, ptr %10, align 8, !tbaa !12
  %70 = call i64 @hwloc_mbind(ptr noundef %68, i64 noundef %69, i32 noundef 1, ptr noundef null, i64 noundef 0, i32 noundef 0)
  %71 = trunc i64 %70 to i32
  store i32 %71, ptr %7, align 4
  store i32 1, ptr %20, align 4
  br label %142

72:                                               ; preds = %56
  br label %73

73:                                               ; preds = %72
  %74 = load ptr, ptr %8, align 8, !tbaa !19
  %75 = load ptr, ptr %11, align 8, !tbaa !8
  %76 = call i32 @hwloc_linux_membind_mask_from_nodeset(ptr noundef %74, ptr noundef %75, ptr noundef %14, ptr noundef %15)
  store i32 %76, ptr %19, align 4, !tbaa !10
  %77 = load i32, ptr %19, align 4, !tbaa !10
  %78 = icmp slt i32 %77, 0
  br i1 %78, label %79, label %80

79:                                               ; preds = %73
  br label %141

80:                                               ; preds = %73
  %81 = load i32, ptr %13, align 4, !tbaa !10
  %82 = and i32 %81, 8
  %83 = icmp ne i32 %82, 0
  br i1 %83, label %84, label %92

84:                                               ; preds = %80
  store i32 2, ptr %18, align 4, !tbaa !10
  %85 = load i32, ptr %13, align 4, !tbaa !10
  %86 = and i32 %85, 4
  %87 = icmp ne i32 %86, 0
  br i1 %87, label %88, label %91

88:                                               ; preds = %84
  %89 = load i32, ptr %18, align 4, !tbaa !10
  %90 = or i32 %89, 1
  store i32 %90, ptr %18, align 4, !tbaa !10
  br label %91

91:                                               ; preds = %88, %84
  br label %92

92:                                               ; preds = %91, %80
  %93 = load ptr, ptr %9, align 8, !tbaa !21
  %94 = load i64, ptr %10, align 8, !tbaa !12
  %95 = load i32, ptr %17, align 4, !tbaa !10
  %96 = load ptr, ptr %15, align 8, !tbaa !14
  %97 = load i32, ptr %14, align 4, !tbaa !10
  %98 = add i32 %97, 1
  %99 = zext i32 %98 to i64
  %100 = load i32, ptr %18, align 4, !tbaa !10
  %101 = call i64 @hwloc_mbind(ptr noundef %93, i64 noundef %94, i32 noundef %95, ptr noundef %96, i64 noundef %99, i32 noundef %100)
  %102 = trunc i64 %101 to i32
  store i32 %102, ptr %19, align 4, !tbaa !10
  %103 = load i32, ptr %17, align 4, !tbaa !10
  %104 = icmp eq i32 %103, 5
  br i1 %104, label %105, label %133

105:                                              ; preds = %92
  %106 = load i32, ptr @hwloc_linux_set_area_membind.preferred_many_notsupported, align 4, !tbaa !10
  %107 = icmp eq i32 %106, -1
  br i1 %107, label %108, label %133

108:                                              ; preds = %105
  %109 = load i32, ptr %19, align 4, !tbaa !10
  %110 = icmp ne i32 %109, 0
  br i1 %110, label %112, label %111

111:                                              ; preds = %108
  store i32 0, ptr @hwloc_linux_set_area_membind.preferred_many_notsupported, align 4, !tbaa !10
  br label %132

112:                                              ; preds = %108
  %113 = call ptr @__errno_location() #18
  %114 = load i32, ptr %113, align 4, !tbaa !10
  %115 = icmp eq i32 %114, 22
  br i1 %115, label %116, label %131

116:                                              ; preds = %112
  %117 = load ptr, ptr %9, align 8, !tbaa !21
  %118 = load i64, ptr %10, align 8, !tbaa !12
  %119 = load ptr, ptr %15, align 8, !tbaa !14
  %120 = load i32, ptr %14, align 4, !tbaa !10
  %121 = add i32 %120, 1
  %122 = zext i32 %121 to i64
  %123 = load i32, ptr %18, align 4, !tbaa !10
  %124 = call i64 @hwloc_mbind(ptr noundef %117, i64 noundef %118, i32 noundef 1, ptr noundef %119, i64 noundef %122, i32 noundef %123)
  %125 = trunc i64 %124 to i32
  store i32 %125, ptr %19, align 4, !tbaa !10
  %126 = load i32, ptr %19, align 4, !tbaa !10
  %127 = icmp ne i32 %126, 0
  br i1 %127, label %130, label %128

128:                                              ; preds = %116
  %129 = load ptr, ptr %11, align 8, !tbaa !8
  call void @warn_preferred_many_fallback(ptr noundef %129)
  store i32 1, ptr @hwloc_linux_set_area_membind.preferred_many_notsupported, align 4, !tbaa !10
  br label %130

130:                                              ; preds = %128, %116
  br label %131

131:                                              ; preds = %130, %112
  br label %132

132:                                              ; preds = %131, %111
  br label %133

133:                                              ; preds = %132, %105, %92
  %134 = load i32, ptr %19, align 4, !tbaa !10
  %135 = icmp slt i32 %134, 0
  br i1 %135, label %136, label %137

136:                                              ; preds = %133
  br label %139

137:                                              ; preds = %133
  %138 = load ptr, ptr %15, align 8, !tbaa !14
  call void @free(ptr noundef %138) #14
  store i32 0, ptr %7, align 4
  store i32 1, ptr %20, align 4
  br label %142

139:                                              ; preds = %136
  %140 = load ptr, ptr %15, align 8, !tbaa !14
  call void @free(ptr noundef %140) #14
  br label %141

141:                                              ; preds = %139, %79
  store i32 -1, ptr %7, align 4
  store i32 1, ptr %20, align 4
  br label %142

142:                                              ; preds = %141, %137, %67, %65, %50, %38
  call void @llvm.lifetime.end.p0(i64 4, ptr %19) #14
  call void @llvm.lifetime.end.p0(i64 4, ptr %18) #14
  call void @llvm.lifetime.end.p0(i64 4, ptr %17) #14
  call void @llvm.lifetime.end.p0(i64 8, ptr %16) #14
  call void @llvm.lifetime.end.p0(i64 8, ptr %15) #14
  call void @llvm.lifetime.end.p0(i64 4, ptr %14) #14
  %143 = load i32, ptr %7, align 4
  ret i32 %143
}