; Function Attrs: nounwind uwtable
define internal i32 @hwloc_linux_set_area_membind(ptr noundef readonly %0, ptr noundef %1, i64 noundef %2, ptr noundef %3, i32 noundef %4, i32 noundef %5) #0 {
  %7 = alloca i32, align 4
  %8 = alloca ptr, align 8
  call void @llvm.lifetime.start.p0(i64 4, ptr nonnull %7) #27
  call void @llvm.lifetime.start.p0(i64 8, ptr nonnull %8) #27
  %9 = ptrtoint ptr %1 to i64
  %10 = tail call i64 @sysconf(i32 noundef 30) #27
  %11 = add nsw i64 %10, -1
  %12 = and i64 %11, %9
  %13 = sub i64 0, %12
  %14 = getelementptr inbounds i8, ptr %1, i64 %13
  %15 = add i64 %12, %2
  switch i32 %4, label %hwloc_linux_membind_policy_from_hwloc.exit [
    i32 0, label %23
    i32 1, label %27
    i32 2, label %16
    i32 3, label %.thread56
    i32 5, label %18
  ]

16:                                               ; preds = %6
  %17 = and i32 %5, 4
  %.not.i = icmp eq i32 %17, 0
  br i1 %.not.i, label %20, label %.thread56

18:                                               ; preds = %6
  br label %.thread56

hwloc_linux_membind_policy_from_hwloc.exit:       ; preds = %6
  %19 = tail call ptr @__errno_location() #31
  store i32 38, ptr %19, align 4, !tbaa !3
  br label %64

20:                                               ; preds = %16
  %21 = load i32, ptr @hwloc_linux_set_area_membind.preferred_many_notsupported, align 4, !tbaa !3
  %22 = icmp eq i32 %21, 1
  %spec.select67 = select i1 %22, i32 1, i32 5
  br label %.thread56

23:                                               ; preds = %6
  %24 = ptrtoint ptr %14 to i64
  %25 = tail call i64 (i64, ...) @syscall(i64 noundef 237, i64 noundef %24, i64 noundef %15, i32 noundef 0, i64 noundef 0, i64 noundef 0, i32 noundef 0) #27
  %26 = trunc i64 %25 to i32
  br label %64

27:                                               ; preds = %6
  %28 = tail call ptr @hwloc_topology_get_complete_nodeset(ptr noundef %0) #30
  %29 = tail call i32 @hwloc_bitmap_isequal(ptr noundef %3, ptr noundef %28) #30
  %.not45 = icmp eq i32 %29, 0
  br i1 %.not45, label %30, label %32

30:                                               ; preds = %27
  %31 = tail call ptr @__errno_location() #31
  store i32 18, ptr %31, align 4, !tbaa !3
  br label %64

32:                                               ; preds = %27
  %33 = ptrtoint ptr %14 to i64
  %34 = tail call i64 (i64, ...) @syscall(i64 noundef 237, i64 noundef %33, i64 noundef %15, i32 noundef 1, i64 noundef 0, i64 noundef 0, i32 noundef 0) #27
  %35 = trunc i64 %34 to i32
  br label %64

.thread56:                                        ; preds = %20, %6, %16, %18
  %.04958 = phi i32 [ 2, %16 ], [ 6, %18 ], [ %4, %6 ], [ %spec.select67, %20 ]
  %36 = call fastcc i32 @hwloc_linux_membind_mask_from_nodeset(ptr noundef %3, ptr noundef %7, ptr noundef %8)
  %37 = icmp slt i32 %36, 0
  br i1 %37, label %64, label %38

38:                                               ; preds = %.thread56
  %39 = and i32 %5, 8
  %.not = icmp eq i32 %39, 0
  %40 = and i32 %5, 4
  %.not42 = icmp eq i32 %40, 0
  %spec.select = select i1 %.not42, i32 2, i32 3
  %.034 = select i1 %.not, i32 0, i32 %spec.select
  %41 = load ptr, ptr %8, align 8, !tbaa !84
  %42 = load i32, ptr %7, align 4, !tbaa !3
  %43 = add i32 %42, 1
  %44 = zext i32 %43 to i64
  %45 = ptrtoint ptr %14 to i64
  %46 = ptrtoint ptr %41 to i64
  %47 = tail call i64 (i64, ...) @syscall(i64 noundef 237, i64 noundef %45, i64 noundef %15, i32 noundef %.04958, i64 noundef %46, i64 noundef range(i64 0, 4294967296) %44, i32 noundef range(i32 0, 4) %.034) #27
  %48 = trunc i64 %47 to i32
  %49 = icmp eq i32 %.04958, 5
  %50 = load i32, ptr @hwloc_linux_set_area_membind.preferred_many_notsupported, align 4
  %51 = icmp eq i32 %50, -1
  %or.cond3 = select i1 %49, i1 %51, i1 false
  br i1 %or.cond3, label %52, label %61

52:                                               ; preds = %38
  %.not43 = icmp eq i32 %48, 0
  br i1 %.not43, label %.thread65.sink.split, label %53

53:                                               ; preds = %52
  %54 = tail call ptr @__errno_location() #31
  %55 = load i32, ptr %54, align 4, !tbaa !3
  %56 = icmp eq i32 %55, 22
  br i1 %56, label %57, label %61

57:                                               ; preds = %53
  %58 = tail call i64 (i64, ...) @syscall(i64 noundef 237, i64 noundef %45, i64 noundef %15, i32 noundef 1, i64 noundef %46, i64 noundef range(i64 0, 4294967296) %44, i32 noundef range(i32 0, 4) %.034) #27
  %59 = trunc i64 %58 to i32
  %.not44 = icmp eq i32 %59, 0
  br i1 %.not44, label %60, label %61

60:                                               ; preds = %57
  tail call fastcc void @warn_preferred_many_fallback(ptr noundef %3)
  br label %.thread65.sink.split

61:                                               ; preds = %57, %53, %38
  %.0 = phi i32 [ %59, %57 ], [ %48, %53 ], [ %48, %38 ]
  %62 = icmp slt i32 %.0, 0
  br i1 %62, label %63, label %.thread65

.thread65.sink.split:                             ; preds = %52, %60
  %.sink = phi i32 [ 1, %60 ], [ 0, %52 ]
  store i32 %.sink, ptr @hwloc_linux_set_area_membind.preferred_many_notsupported, align 4, !tbaa !3
  br label %.thread65

.thread65:                                        ; preds = %.thread65.sink.split, %61
  tail call void @free(ptr noundef %41) #27
  br label %64

63:                                               ; preds = %61
  tail call void @free(ptr noundef %41) #27
  br label %64

64:                                               ; preds = %hwloc_linux_membind_policy_from_hwloc.exit, %63, %.thread56, %.thread65, %32, %30, %23
  %.035 = phi i32 [ %26, %23 ], [ %35, %32 ], [ -1, %30 ], [ 0, %.thread65 ], [ -1, %hwloc_linux_membind_policy_from_hwloc.exit ], [ -1, %.thread56 ], [ -1, %63 ]
  call void @llvm.lifetime.end.p0(i64 8, ptr nonnull %8) #27
  call void @llvm.lifetime.end.p0(i64 4, ptr nonnull %7) #27
  ret i32 %.035
}